target datalayout = "e-m:e-p270:32:32-p271:32:32-p272:64:64-i64:64-i128:128-f80:128-n8:16:32:64-S128"
target triple = "x86_64-pc-linux-gnu"

%struct.AF_CJKMetricsRec_ = type { %struct.AF_StyleMetricsRec_, i32, [2 x %struct.AF_CJKAxisRec_] }
%struct.AF_StyleMetricsRec_ = type { ptr, %struct.AF_ScalerRec_, i8, ptr }
%struct.AF_ScalerRec_ = type { ptr, i64, i64, i64, i64, i32, i32 }
%struct.AF_CJKAxisRec_ = type { i64, i64, i32, [16 x %struct.AF_WidthRec_], i64, i64, i8, i8, i32, [8 x %struct.AF_CJKBlueRec_], i64, i64 }
%struct.AF_WidthRec_ = type { i64, i64, i64 }
%struct.AF_CJKBlueRec_ = type { %struct.AF_WidthRec_, %struct.AF_WidthRec_, i32 }
%struct.AF_GlyphHintsRec_ = type { ptr, i64, i64, i64, i64, i32, i32, ptr, i32, i32, ptr, [2 x %struct.AF_AxisHintsRec_], i32, i32, ptr, %struct.anon.0 }
%struct.AF_AxisHintsRec_ = type { i32, i32, ptr, i32, i32, ptr, i32, %struct.anon }
%struct.anon = type { [18 x %struct.AF_SegmentRec_], [12 x %struct.AF_EdgeRec_] }
%struct.AF_SegmentRec_ = type { i8, i8, i16, i16, i16, i16, i16, ptr, ptr, ptr, ptr, i64, i64, ptr, ptr }
%struct.AF_EdgeRec_ = type { i16, i64, i64, i8, i8, i64, ptr, ptr, ptr, i32, ptr, ptr }
%struct.anon.0 = type { [8 x ptr], [96 x %struct.AF_PointRec_] }
%struct.AF_PointRec_ = type { i16, i8, i8, i64, i64, i16, i16, i64, i64, i64, i64, ptr, ptr }

; Function Attrs: nounwind uwtable
define internal void @af_glyph_hints_rescale(ptr noundef %0, ptr noundef %1) #0 {
  %3 = alloca ptr, align 8
  %4 = alloca ptr, align 8
  store ptr %0, ptr %3, align 8, !tbaa !48
  store ptr %1, ptr %4, align 8, !tbaa !3
  %5 = load ptr, ptr %4, align 8, !tbaa !3
  %6 = load ptr, ptr %3, align 8, !tbaa !48
  %7 = getelementptr inbounds nuw %struct.AF_GlyphHintsRec_, ptr %6, i32 0, i32 14
  store ptr %5, ptr %7, align 8, !tbaa !236
  %8 = load ptr, ptr %4, align 8, !tbaa !3
  %9 = getelementptr inbounds nuw %struct.AF_StyleMetricsRec_, ptr %8, i32 0, i32 1
  %10 = getelementptr inbounds nuw %struct.AF_ScalerRec_, ptr %9, i32 0, i32 6
  %11 = load i32, ptr %10, align 4, !tbaa !237
  %12 = load ptr, ptr %3, align 8, !tbaa !48
  %13 = getelementptr inbounds nuw %struct.AF_GlyphHintsRec_, ptr %12, i32 0, i32 12
  store i32 %11, ptr %13, align 8, !tbaa !61
  ret void
}

; Function Attrs: nounwind uwtable
define internal i32 @af_cjk_hints_init(ptr noundef %0, ptr noundef %1) #0 {
  %3 = alloca ptr, align 8
  %4 = alloca ptr, align 8
  %5 = alloca ptr, align 8
  %6 = alloca i32, align 4
  %7 = alloca i32, align 4
  %8 = alloca i32, align 4
  store ptr %0, ptr %3, align 8, !tbaa !48
  store ptr %1, ptr %4, align 8, !tbaa !3
  call void @llvm.lifetime.start.p0(i64 8, ptr %5) #10
  %9 = load ptr, ptr %4, align 8, !tbaa !3
  store ptr %9, ptr %5, align 8, !tbaa !10
  call void @llvm.lifetime.start.p0(i64 4, ptr %6) #10
  call void @llvm.lifetime.start.p0(i64 4, ptr %7) #10
  call void @llvm.lifetime.start.p0(i64 4, ptr %8) #10
  %10 = load ptr, ptr %3, align 8, !tbaa !48
  %11 = load ptr, ptr %5, align 8, !tbaa !10
  call void @af_glyph_hints_rescale(ptr noundef %10, ptr noundef %11)
  %12 = load ptr, ptr %5, align 8, !tbaa !10
  %13 = getelementptr inbounds nuw %struct.AF_CJKMetricsRec_, ptr %12, i32 0, i32 2
  %14 = getelementptr inbounds [2 x %struct.AF_CJKAxisRec_], ptr %13, i64 0, i64 0
  %15 = getelementptr inbounds nuw %struct.AF_CJKAxisRec_, ptr %14, i32 0, i32 0
  %16 = load i64, ptr %15, align 8, !tbaa !50
  %17 = load ptr, ptr %3, align 8, !tbaa !48
  %18 = getelementptr inbounds nuw %struct.AF_GlyphHintsRec_, ptr %17, i32 0, i32 1
  store i64 %16, ptr %18, align 8, !tbaa !51
  %19 = load ptr, ptr %5, align 8, !tbaa !10
  %20 = getelementptr inbounds nuw %struct.AF_CJKMetricsRec_, ptr %19, i32 0, i32 2
  %21 = getelementptr inbounds [2 x %struct.AF_CJKAxisRec_], ptr %20, i64 0, i64 0
  %22 = getelementptr inbounds nuw %struct.AF_CJKAxisRec_, ptr %21, i32 0, i32 1
  %23 = load i64, ptr %22, align 8, !tbaa !56
  %24 = load ptr, ptr %3, align 8, !tbaa !48
  %25 = getelementptr inbounds nuw %struct.AF_GlyphHintsRec_, ptr %24, i32 0, i32 2
  store i64 %23, ptr %25, align 8, !tbaa !57
  %26 = load ptr, ptr %5, align 8, !tbaa !10
  %27 = getelementptr inbounds nuw %struct.AF_CJKMetricsRec_, ptr %26, i32 0, i32 2
  %28 = getelementptr inbounds [2 x %struct.AF_CJKAxisRec_], ptr %27, i64 0, i64 1
  %29 = getelementptr inbounds nuw %struct.AF_CJKAxisRec_, ptr %28, i32 0, i32 0
  %30 = load i64, ptr %29, align 8, !tbaa !50
  %31 = load ptr, ptr %3, align 8, !tbaa !48
  %32 = getelementptr inbounds nuw %struct.AF_GlyphHintsRec_, ptr %31, i32 0, i32 3
  store i64 %30, ptr %32, align 8, !tbaa !58
  %33 = load ptr, ptr %5, align 8, !tbaa !10
  %34 = getelementptr inbounds nuw %struct.AF_CJKMetricsRec_, ptr %33, i32 0, i32 2
  %35 = getelementptr inbounds [2 x %struct.AF_CJKAxisRec_], ptr %34, i64 0, i64 1
  %36 = getelementptr inbounds nuw %struct.AF_CJKAxisRec_, ptr %35, i32 0, i32 1
  %37 = load i64, ptr %36, align 8, !tbaa !56
  %38 = load ptr, ptr %3, align 8, !tbaa !48
  %39 = getelementptr inbounds nuw %struct.AF_GlyphHintsRec_, ptr %38, i32 0, i32 4
  store i64 %37, ptr %39, align 8, !tbaa !59
  %40 = load ptr, ptr %5, align 8, !tbaa !10
  %41 = getelementptr inbounds nuw %struct.AF_CJKMetricsRec_, ptr %40, i32 0, i32 0
  %42 = getelementptr inbounds nuw %struct.AF_StyleMetricsRec_, ptr %41, i32 0, i32 1
  %43 = getelementptr inbounds nuw %struct.AF_ScalerRec_, ptr %42, i32 0, i32 5
  %44 = load i32, ptr %43, align 8, !tbaa !60
  store i32 %44, ptr %6, align 4, !tbaa !43
  %45 = load ptr, ptr %3, align 8, !tbaa !48
  %46 = getelementptr inbounds nuw %struct.AF_GlyphHintsRec_, ptr %45, i32 0, i32 12
  %47 = load i32, ptr %46, align 8, !tbaa !61
  store i32 %47, ptr %7, align 4, !tbaa !43
  store i32 0, ptr %8, align 4, !tbaa !43
  %48 = load i32, ptr %6, align 4, !tbaa !43
  %49 = icmp eq i32 %48, 2
  br i1 %49, label %53, label %50

50:                                               ; preds = %2
  %51 = load i32, ptr %6, align 4, !tbaa !43
  %52 = icmp eq i32 %51, 3
  br i1 %52, label %53, label %56

53:                                               ; preds = %50, %2
  %54 = load i32, ptr %8, align 4, !tbaa !43
  %55 = or i32 %54, 1
  store i32 %55, ptr %8, align 4, !tbaa !43
  br label %56

56:                                               ; preds = %53, %50
  %57 = load i32, ptr %6, align 4, !tbaa !43
  %58 = icmp eq i32 %57, 2
  br i1 %58, label %62, label %59

59:                                               ; preds = %56
  %60 = load i32, ptr %6, align 4, !tbaa !43
  %61 = icmp eq i32 %60, 4
  br i1 %61, label %62, label %65

62:                                               ; preds = %59, %56
  %63 = load i32, ptr %8, align 4, !tbaa !43
  %64 = or i32 %63, 2
  store i32 %64, ptr %8, align 4, !tbaa !43
  br label %65

65:                                               ; preds = %62, %59
  %66 = load i32, ptr %6, align 4, !tbaa !43
  %67 = icmp ne i32 %66, 1
  br i1 %67, label %68, label %74

68:                                               ; preds = %65
  %69 = load i32, ptr %6, align 4, !tbaa !43
  %70 = icmp ne i32 %69, 3
  br i1 %70, label %71, label %74

71:                                               ; preds = %68
  %72 = load i32, ptr %8, align 4, !tbaa !43
  %73 = or i32 %72, 4
  store i32 %73, ptr %8, align 4, !tbaa !43
  br label %74

74:                                               ; preds = %71, %68, %65
  %75 = load i32, ptr %6, align 4, !tbaa !43
  %76 = icmp eq i32 %75, 2
  br i1 %76, label %77, label %80

77:                                               ; preds = %74
  %78 = load i32, ptr %8, align 4, !tbaa !43
  %79 = or i32 %78, 8
  store i32 %79, ptr %8, align 4, !tbaa !43
  br label %80

80:                                               ; preds = %77, %74
  %81 = load i32, ptr %7, align 4, !tbaa !43
  %82 = or i32 %81, 4
  store i32 %82, ptr %7, align 4, !tbaa !43
  %83 = load i32, ptr %7, align 4, !tbaa !43
  %84 = load ptr, ptr %3, align 8, !tbaa !48
  %85 = getelementptr inbounds nuw %struct.AF_GlyphHintsRec_, ptr %84, i32 0, i32 12
  store i32 %83, ptr %85, align 8, !tbaa !61
  %86 = load i32, ptr %8, align 4, !tbaa !43
  %87 = load ptr, ptr %3, align 8, !tbaa !48
  %88 = getelementptr inbounds nuw %struct.AF_GlyphHintsRec_, ptr %87, i32 0, i32 13
  store i32 %86, ptr %88, align 4, !tbaa !62
  call void @llvm.lifetime.end.p0(i64 4, ptr %8) #10
  call void @llvm.lifetime.end.p0(i64 4, ptr %7) #10
  call void @llvm.lifetime.end.p0(i64 4, ptr %6) #10
  call void @llvm.lifetime.end.p0(i64 8, ptr %5) #10
  ret i32 0
}